; Function Attrs: nounwind uwtable
define internal void @HIDAPI_DriverPS4_SetDevicePlayerIndex(ptr noundef readonly captures(none) %0, i32 %1, i32 noundef %2) #0 {
  %4 = alloca %struct.DS4EffectsState_t, align 1
  %5 = getelementptr inbounds nuw i8, ptr %0, i64 112
  %6 = load ptr, ptr %5, align 8
  %7 = getelementptr inbounds nuw i8, ptr %6, i64 8
  %8 = load ptr, ptr %7, align 8
  %.not = icmp eq ptr %8, null
  br i1 %.not, label %41, label %9

9:                                                ; preds = %3
  %10 = getelementptr inbounds nuw i8, ptr %6, i64 96
  store i32 %2, ptr %10, align 8
  call void @llvm.lifetime.start.p0(i64 19, ptr nonnull %4) #9
  call void @llvm.memset.p0.i64(ptr noundef nonnull align 1 dereferenceable(19) %4, i8 0, i64 19, i1 false)
  %11 = getelementptr inbounds nuw i8, ptr %6, i64 21
  %12 = load i8, ptr %11, align 1, !range !5, !noundef !6
  %13 = trunc nuw i8 %12 to i1
  br i1 %13, label %14, label %20

14:                                               ; preds = %9
  %15 = getelementptr inbounds nuw i8, ptr %6, i64 100
  %16 = load i8, ptr %15, align 4
  %17 = getelementptr inbounds nuw i8, ptr %4, i64 1
  store i8 %16, ptr %17, align 1
  %18 = getelementptr inbounds nuw i8, ptr %6, i64 101
  %19 = load i8, ptr %18, align 1
  store i8 %19, ptr %4, align 1
  br label %20

20:                                               ; preds = %14, %9
  %21 = getelementptr inbounds nuw i8, ptr %6, i64 20
  %22 = load i8, ptr %21, align 4, !range !5, !noundef !6
  %23 = trunc nuw i8 %22 to i1
  br i1 %23, label %24, label %HIDAPI_DriverPS4_UpdateEffects.exit

24:                                               ; preds = %20
  %25 = getelementptr inbounds nuw i8, ptr %6, i64 102
  %26 = load i8, ptr %25, align 2, !range !5, !noundef !6
  %27 = trunc nuw i8 %26 to i1
  br i1 %27, label %28, label %32

28:                                               ; preds = %24
  %29 = getelementptr inbounds nuw i8, ptr %6, i64 103
  %30 = getelementptr inbounds nuw i8, ptr %6, i64 104
  %31 = getelementptr inbounds nuw i8, ptr %6, i64 105
  br label %.sink.split.i

32:                                               ; preds = %24
  %33 = urem i32 %2, 7
  %.inv.i.i = icmp slt i32 %2, 0
  %narrow.i.i = select i1 %.inv.i.i, i32 0, i32 %33
  %.0.i.i = zext nneg i32 %narrow.i.i to i64
  %34 = getelementptr inbounds nuw [7 x [3 x i8]], ptr @SetLedsForPlayerIndex.colors, i64 0, i64 %.0.i.i
  %35 = getelementptr inbounds nuw i8, ptr %34, i64 1
  %36 = getelementptr inbounds nuw i8, ptr %34, i64 2
  br label %.sink.split.i

.sink.split.i:                                    ; preds = %32, %28
  %.sink4.in = phi ptr [ %29, %28 ], [ %34, %32 ]
  %.sink.in = phi ptr [ %30, %28 ], [ %35, %32 ]
  %.sink.in.i = phi ptr [ %31, %28 ], [ %36, %32 ]
  %.sink = load i8, ptr %.sink.in, align 1
  %.sink4 = load i8, ptr %.sink4.in, align 1
  %37 = getelementptr inbounds nuw i8, ptr %4, i64 2
  store i8 %.sink4, ptr %37, align 1
  %38 = getelementptr inbounds nuw i8, ptr %4, i64 3
  store i8 %.sink, ptr %38, align 1
  %.sink.i = load i8, ptr %.sink.in.i, align 1
  %39 = getelementptr inbounds nuw i8, ptr %4, i64 4
  store i8 %.sink.i, ptr %39, align 1
  br label %HIDAPI_DriverPS4_UpdateEffects.exit

HIDAPI_DriverPS4_UpdateEffects.exit:              ; preds = %20, %.sink.split.i
  %40 = call fastcc zeroext i1 @HIDAPI_DriverPS4_InternalSendJoystickEffect(ptr noundef nonnull %6, ptr noundef nonnull %4, i32 noundef 19, i1 noundef zeroext false)
  call void @llvm.lifetime.end.p0(i64 19, ptr nonnull %4) #9
  br label %41

41:                                               ; preds = %3, %HIDAPI_DriverPS4_UpdateEffects.exit
  ret void
}